target datalayout = "e-m:e-p270:32:32-p271:32:32-p272:64:64-i64:64-i128:128-f80:128-n8:16:32:64-S128"
target triple = "x86_64-unknown-linux-gnu"

%"class.icu_75::Locale" = type <{ %"class.icu_75::UObject", [12 x i8], [6 x i8], [4 x i8], [2 x i8], i32, [4 x i8], ptr, [157 x i8], [3 x i8], ptr, i8, [7 x i8] }>
%"class.icu_75::UObject" = type { ptr }
%"class.icu_75::UnicodeString" = type { %"class.icu_75::Replaceable", %"union.icu_75::UnicodeString::StackBufferOrFields" }
%"class.icu_75::Replaceable" = type { %"class.icu_75::UObject" }
%"union.icu_75::UnicodeString::StackBufferOrFields" = type { %struct.anon.0, [32 x i8] }
%struct.anon.0 = type { i16, i32, i32, ptr }
%"class.icu_75::Char16Ptr" = type { ptr }
%"class.icu_75::DecimalFormatSymbols" = type <{ %"class.icu_75::UObject", [29 x %"class.icu_75::UnicodeString"], %"class.icu_75::UnicodeString", i32, [4 x i8], %"class.icu_75::Locale", [157 x i8], [157 x i8], [6 x i8], ptr, [3 x %"class.icu_75::UnicodeString"], [3 x %"class.icu_75::UnicodeString"], i8, i8, [9 x i8], [5 x i8] }>

@_ZTIN6icu_7512NumberFormatE = external constant ptr
@_ZTIN6icu_7513DecimalFormatE = external constant ptr

; Function Attrs: mustprogress nounwind uwtable
define linkonce_odr void @_ZN6icu_759Char16PtrD2Ev(ptr noundef nonnull align 8 dereferenceable(8) %this) unnamed_addr #1 comdat align 2 {
entry:
  %this.addr = alloca ptr, align 8
  store ptr %this, ptr %this.addr, align 8
  %this1 = load ptr, ptr %this.addr, align 8
  %p_ = getelementptr inbounds %"class.icu_75::Char16Ptr", ptr %this1, i32 0, i32 0
  %0 = load ptr, ptr %p_, align 8
  call void asm sideeffect "", "rm,~{memory},~{dirflag},~{fpsr},~{flags}"(ptr %0) #8, !srcloc !4
  ret void
}

; Function Attrs: mustprogress nounwind uwtable
define linkonce_odr void @_ZN6icu_759Char16PtrC2EPDs(ptr noundef nonnull align 8 dereferenceable(8) %this, ptr noundef %p) unnamed_addr #1 comdat align 2 {
entry:
  %this.addr = alloca ptr, align 8
  %p.addr = alloca ptr, align 8
  store ptr %this, ptr %this.addr, align 8
  store ptr %p, ptr %p.addr, align 8
  %this1 = load ptr, ptr %this.addr, align 8
  %p_ = getelementptr inbounds %"class.icu_75::Char16Ptr", ptr %this1, i32 0, i32 0
  %0 = load ptr, ptr %p.addr, align 8
  store ptr %0, ptr %p_, align 8
  ret void
}

; Function Attrs: mustprogress nounwind uwtable
define linkonce_odr noundef nonnull align 8 dereferenceable(64) ptr @_ZNK6icu_7520DecimalFormatSymbols14getConstSymbolENS0_19ENumberFormatSymbolE(ptr noundef nonnull align 8 dereferenceable(2883) %this, i32 noundef %symbol) #1 comdat align 2 {
entry:
  %this.addr = alloca ptr, align 8
  %symbol.addr = alloca i32, align 4
  %strPtr = alloca ptr, align 8
  store ptr %this, ptr %this.addr, align 8
  store i32 %symbol, ptr %symbol.addr, align 4
  %this1 = load ptr, ptr %this.addr, align 8
  %0 = load i32, ptr %symbol.addr, align 4
  %cmp = icmp slt i32 %0, 29
  br i1 %cmp, label %if.then, label %if.else

if.then:                                          ; preds = %entry
  %fSymbols = getelementptr inbounds %"class.icu_75::DecimalFormatSymbols", ptr %this1, i32 0, i32 1
  %1 = load i32, ptr %symbol.addr, align 4
  %idxprom = zext i32 %1 to i64
  %arrayidx = getelementptr inbounds [29 x %"class.icu_75::UnicodeString"], ptr %fSymbols, i64 0, i64 %idxprom
  store ptr %arrayidx, ptr %strPtr, align 8
  br label %if.end

if.else:                                          ; preds = %entry
  %fNoSymbol = getelementptr inbounds %"class.icu_75::DecimalFormatSymbols", ptr %this1, i32 0, i32 2
  store ptr %fNoSymbol, ptr %strPtr, align 8
  br label %if.end

if.end:                                           ; preds = %if.else, %if.then
  %2 = load ptr, ptr %strPtr, align 8
  ret ptr %2
}

; Function Attrs: mustprogress nounwind uwtable
define internal noundef signext i8 @_ZL9U_FAILURE10UErrorCode(i32 noundef %code) #1 {
entry:
  %code.addr = alloca i32, align 4
  store i32 %code, ptr %code.addr, align 4
  %0 = load i32, ptr %code.addr, align 4
  %cmp = icmp sgt i32 %0, 0
  %conv = zext i1 %cmp to i8
  ret i8 %conv
}

; Function Attrs: mustprogress uwtable
define i32 @unum_getSymbol_75(ptr noundef %fmt, i32 noundef %symbol, ptr noundef %buffer, i32 noundef %size, ptr noundef %status) #0 personality ptr @__gxx_personality_v0 {
entry:
  %retval = alloca i32, align 4
  %fmt.addr = alloca ptr, align 8
  %symbol.addr = alloca i32, align 4
  %buffer.addr = alloca ptr, align 8
  %size.addr = alloca i32, align 4
  %status.addr = alloca ptr, align 8
  %nf = alloca ptr, align 8
  %dcf = alloca ptr, align 8
  %agg.tmp = alloca %"class.icu_75::Char16Ptr", align 8
  %exn.slot = alloca ptr, align 8
  %ehselector.slot = alloca i32, align 4
  store ptr %fmt, ptr %fmt.addr, align 8
  store i32 %symbol, ptr %symbol.addr, align 4
  store ptr %buffer, ptr %buffer.addr, align 8
  store i32 %size, ptr %size.addr, align 4
  store ptr %status, ptr %status.addr, align 8
  %0 = load ptr, ptr %status.addr, align 8
  %cmp = icmp eq ptr %0, null
  br i1 %cmp, label %if.then, label %lor.lhs.false

lor.lhs.false:                                    ; preds = %entry
  %1 = load ptr, ptr %status.addr, align 8
  %2 = load i32, ptr %1, align 4
  %call = call noundef signext i8 @_ZL9U_FAILURE10UErrorCode(i32 noundef %2)
  %tobool = icmp ne i8 %call, 0
  br i1 %tobool, label %if.then, label %if.end

if.then:                                          ; preds = %lor.lhs.false, %entry
  store i32 0, ptr %retval, align 4
  br label %return

if.end:                                           ; preds = %lor.lhs.false
  %3 = load ptr, ptr %fmt.addr, align 8
  %cmp1 = icmp eq ptr %3, null
  br i1 %cmp1, label %if.then6, label %lor.lhs.false2

lor.lhs.false2:                                   ; preds = %if.end
  %4 = load i32, ptr %symbol.addr, align 4
  %cmp3 = icmp slt i32 %4, 0
  br i1 %cmp3, label %if.then6, label %lor.lhs.false4

lor.lhs.false4:                                   ; preds = %lor.lhs.false2
  %5 = load i32, ptr %symbol.addr, align 4
  %cmp5 = icmp sge i32 %5, 29
  br i1 %cmp5, label %if.then6, label %if.end7

if.then6:                                         ; preds = %lor.lhs.false4, %lor.lhs.false2, %if.end
  %6 = load ptr, ptr %status.addr, align 8
  store i32 1, ptr %6, align 4
  store i32 0, ptr %retval, align 4
  br label %return

if.end7:                                          ; preds = %lor.lhs.false4
  %7 = load ptr, ptr %fmt.addr, align 8
  store ptr %7, ptr %nf, align 8
  %8 = load ptr, ptr %nf, align 8
  %9 = icmp eq ptr %8, null
  br i1 %9, label %dynamic_cast.null, label %dynamic_cast.notnull

dynamic_cast.notnull:                             ; preds = %if.end7
  %10 = call ptr @__dynamic_cast(ptr %8, ptr @_ZTIN6icu_7512NumberFormatE, ptr @_ZTIN6icu_7513DecimalFormatE, i64 0) #8
  br label %dynamic_cast.end

dynamic_cast.null:                                ; preds = %if.end7
  br label %dynamic_cast.end

dynamic_cast.end:                                 ; preds = %dynamic_cast.null, %dynamic_cast.notnull
  %11 = phi ptr [ %10, %dynamic_cast.notnull ], [ null, %dynamic_cast.null ]
  store ptr %11, ptr %dcf, align 8
  %12 = load ptr, ptr %dcf, align 8
  %cmp8 = icmp eq ptr %12, null
  br i1 %cmp8, label %if.then9, label %if.end10

if.then9:                                         ; preds = %dynamic_cast.end
  %13 = load ptr, ptr %status.addr, align 8
  store i32 16, ptr %13, align 4
  store i32 0, ptr %retval, align 4
  br label %return

if.end10:                                         ; preds = %dynamic_cast.end
  %14 = load ptr, ptr %dcf, align 8
  %vtable = load ptr, ptr %14, align 8
  %vfn = getelementptr inbounds ptr, ptr %vtable, i64 39
  %15 = load ptr, ptr %vfn, align 8
  %call11 = call noundef ptr %15(ptr noundef nonnull align 8 dereferenceable(368) %14)
  %16 = load i32, ptr %symbol.addr, align 4
  %call12 = call noundef nonnull align 8 dereferenceable(64) ptr @_ZNK6icu_7520DecimalFormatSymbols14getConstSymbolENS0_19ENumberFormatSymbolE(ptr noundef nonnull align 8 dereferenceable(2883) %call11, i32 noundef %16)
  %17 = load ptr, ptr %buffer.addr, align 8
  call void @_ZN6icu_759Char16PtrC2EPDs(ptr noundef nonnull align 8 dereferenceable(8) %agg.tmp, ptr noundef %17)
  %18 = load i32, ptr %size.addr, align 4
  %19 = load ptr, ptr %status.addr, align 8
  %call13 = invoke noundef i32 @_ZNK6icu_7513UnicodeString7extractENS_9Char16PtrEiR10UErrorCode(ptr noundef nonnull align 8 dereferenceable(64) %call12, ptr noundef %agg.tmp, i32 noundef %18, ptr noundef nonnull align 4 dereferenceable(4) %19)
          to label %invoke.cont unwind label %lpad

invoke.cont:                                      ; preds = %if.end10
  store i32 %call13, ptr %retval, align 4
  call void @_ZN6icu_759Char16PtrD2Ev(ptr noundef nonnull align 8 dereferenceable(8) %agg.tmp) #8
  br label %return

lpad:                                             ; preds = %if.end10
  %20 = landingpad { ptr, i32 }
          cleanup
  %21 = extractvalue { ptr, i32 } %20, 0
  store ptr %21, ptr %exn.slot, align 8
  %22 = extractvalue { ptr, i32 } %20, 1
  store i32 %22, ptr %ehselector.slot, align 4
  call void @_ZN6icu_759Char16PtrD2Ev(ptr noundef nonnull align 8 dereferenceable(8) %agg.tmp) #8
  br label %eh.resume

return:                                           ; preds = %invoke.cont, %if.then9, %if.then6, %if.then
  %23 = load i32, ptr %retval, align 4
  ret i32 %23

eh.resume:                                        ; preds = %lpad
  %exn = load ptr, ptr %exn.slot, align 8
  %sel = load i32, ptr %ehselector.slot, align 4
  %lpad.val = insertvalue { ptr, i32 } poison, ptr %exn, 0
  %lpad.val14 = insertvalue { ptr, i32 } %lpad.val, i32 %sel, 1
  resume { ptr, i32 } %lpad.val14
}