; Function Attrs: mustprogress uwtable
define noundef i32 @unum_getSymbol_75(ptr noundef %fmt, i32 noundef %symbol, ptr noundef %buffer, i32 noundef %size, ptr noundef %status) local_unnamed_addr #0 personality ptr @__gxx_personality_v0 {
entry:
  %agg.tmp = alloca %"class.icu_75::Char16Ptr", align 8
  %cmp = icmp eq ptr %status, null
  br i1 %cmp, label %return, label %lor.lhs.false

lor.lhs.false:                                    ; preds = %entry
  %0 = load i32, ptr %status, align 4
  %cmp.i = icmp slt i32 %0, 1
  br i1 %cmp.i, label %if.end, label %return

if.end:                                           ; preds = %lor.lhs.false
  %cmp1 = icmp eq ptr %fmt, null
  %1 = icmp ugt i32 %symbol, 28
  %or.cond1 = or i1 %cmp1, %1
  br i1 %or.cond1, label %if.then6, label %dynamic_cast.notnull

if.then6:                                         ; preds = %if.end
  store i32 1, ptr %status, align 4
  br label %return

dynamic_cast.notnull:                             ; preds = %if.end
  %2 = tail call ptr @__dynamic_cast(ptr nonnull %fmt, ptr nonnull @_ZTIN6icu_7512NumberFormatE, ptr nonnull @_ZTIN6icu_7513DecimalFormatE, i64 0) #10
  %cmp8 = icmp eq ptr %2, null
  br i1 %cmp8, label %if.then9, label %if.end10

if.then9:                                         ; preds = %dynamic_cast.notnull
  store i32 16, ptr %status, align 4
  br label %return

if.end10:                                         ; preds = %dynamic_cast.notnull
  %vtable = load ptr, ptr %2, align 8
  %vfn = getelementptr inbounds i8, ptr %vtable, i64 312
  %3 = load ptr, ptr %vfn, align 8
  %call11 = tail call noundef ptr %3(ptr noundef nonnull align 8 dereferenceable(368) %2)
  %fSymbols.i = getelementptr inbounds i8, ptr %call11, i64 8
  %idxprom.i = zext nneg i32 %symbol to i64
  %arrayidx.i = getelementptr inbounds [29 x %"class.icu_75::UnicodeString"], ptr %fSymbols.i, i64 0, i64 %idxprom.i
  store ptr %buffer, ptr %agg.tmp, align 8
  %call13 = invoke noundef i32 @_ZNK6icu_7513UnicodeString7extractENS_9Char16PtrEiR10UErrorCode(ptr noundef nonnull align 8 dereferenceable(64) %arrayidx.i, ptr noundef nonnull %agg.tmp, i32 noundef %size, ptr noundef nonnull align 4 dereferenceable(4) %status)
          to label %invoke.cont unwind label %lpad

invoke.cont:                                      ; preds = %if.end10
  %4 = load ptr, ptr %agg.tmp, align 8
  call void asm sideeffect "", "rm,~{memory},~{dirflag},~{fpsr},~{flags}"(ptr %4) #10, !srcloc !4
  br label %return

lpad:                                             ; preds = %if.end10
  %5 = landingpad { ptr, i32 }
          cleanup
  %6 = load ptr, ptr %agg.tmp, align 8
  call void asm sideeffect "", "rm,~{memory},~{dirflag},~{fpsr},~{flags}"(ptr %6) #10, !srcloc !4
  resume { ptr, i32 } %5

return:                                           ; preds = %entry, %lor.lhs.false, %invoke.cont, %if.then9, %if.then6
  %retval.0 = phi i32 [ 0, %if.then6 ], [ 0, %if.then9 ], [ %call13, %invoke.cont ], [ 0, %lor.lhs.false ], [ 0, %entry ]
  ret i32 %retval.0
}